target datalayout = "e-m:e-p270:32:32-p271:32:32-p272:64:64-i64:64-i128:128-f80:128-n8:16:32:64-S128"
target triple = "x86_64-pc-linux-gnu"

%struct.X509_crl_st = type { %struct.X509_crl_info_st, %struct.X509_algor_st, %struct.asn1_string_st, %struct.CRYPTO_REF_COUNT, i32, ptr, ptr, i32, i32, ptr, ptr, ptr, [20 x i8], ptr, ptr, ptr, ptr, ptr }
%struct.X509_crl_info_st = type { ptr, %struct.X509_algor_st, ptr, ptr, ptr, ptr, ptr, %struct.ASN1_ENCODING_st }
%struct.ASN1_ENCODING_st = type { ptr, i64, i32 }
%struct.X509_algor_st = type { ptr, ptr }
%struct.asn1_string_st = type { i32, i32, ptr, i64 }
%struct.CRYPTO_REF_COUNT = type { i32 }
%struct.x509_revoked_st = type { %struct.asn1_string_st, ptr, ptr, ptr, i32, i32 }

; Function Attrs: inlinehint nounwind uwtable
define internal ptr @ossl_check_const_X509_REVOKED_sk_type(ptr noundef %0) #3 {
  %2 = alloca ptr, align 8
  store ptr %0, ptr %2, align 8, !tbaa !42
  %3 = load ptr, ptr %2, align 8, !tbaa !42
  ret ptr %3
}

; Function Attrs: inlinehint nounwind uwtable
define internal ptr @ossl_check_X509_REVOKED_sk_type(ptr noundef %0) #3 {
  %2 = alloca ptr, align 8
  store ptr %0, ptr %2, align 8, !tbaa !42
  %3 = load ptr, ptr %2, align 8, !tbaa !42
  ret ptr %3
}

; Function Attrs: nounwind uwtable
define i32 @X509_CRL_sort(ptr noundef %0) #0 {
  %2 = alloca ptr, align 8
  %3 = alloca i32, align 4
  %4 = alloca ptr, align 8
  store ptr %0, ptr %2, align 8, !tbaa !3
  call void @llvm.lifetime.start.p0(i64 4, ptr %3) #4
  call void @llvm.lifetime.start.p0(i64 8, ptr %4) #4
  %5 = load ptr, ptr %2, align 8, !tbaa !3
  %6 = getelementptr inbounds nuw %struct.X509_crl_st, ptr %5, i32 0, i32 0
  %7 = getelementptr inbounds nuw %struct.X509_crl_info_st, ptr %6, i32 0, i32 5
  %8 = load ptr, ptr %7, align 8, !tbaa !33
  %9 = call ptr @ossl_check_X509_REVOKED_sk_type(ptr noundef %8)
  call void @OPENSSL_sk_sort(ptr noundef %9)
  store i32 0, ptr %3, align 4, !tbaa !34
  br label %10

10:                                               ; preds = %30, %1
  %11 = load i32, ptr %3, align 4, !tbaa !34
  %12 = load ptr, ptr %2, align 8, !tbaa !3
  %13 = getelementptr inbounds nuw %struct.X509_crl_st, ptr %12, i32 0, i32 0
  %14 = getelementptr inbounds nuw %struct.X509_crl_info_st, ptr %13, i32 0, i32 5
  %15 = load ptr, ptr %14, align 8, !tbaa !33
  %16 = call ptr @ossl_check_const_X509_REVOKED_sk_type(ptr noundef %15)
  %17 = call i32 @OPENSSL_sk_num(ptr noundef %16)
  %18 = icmp slt i32 %11, %17
  br i1 %18, label %19, label %33

19:                                               ; preds = %10
  %20 = load ptr, ptr %2, align 8, !tbaa !3
  %21 = getelementptr inbounds nuw %struct.X509_crl_st, ptr %20, i32 0, i32 0
  %22 = getelementptr inbounds nuw %struct.X509_crl_info_st, ptr %21, i32 0, i32 5
  %23 = load ptr, ptr %22, align 8, !tbaa !33
  %24 = call ptr @ossl_check_const_X509_REVOKED_sk_type(ptr noundef %23)
  %25 = load i32, ptr %3, align 4, !tbaa !34
  %26 = call ptr @OPENSSL_sk_value(ptr noundef %24, i32 noundef %25)
  store ptr %26, ptr %4, align 8, !tbaa !35
  %27 = load i32, ptr %3, align 4, !tbaa !34
  %28 = load ptr, ptr %4, align 8, !tbaa !35
  %29 = getelementptr inbounds nuw %struct.x509_revoked_st, ptr %28, i32 0, i32 5
  store i32 %27, ptr %29, align 4, !tbaa !37
  br label %30

30:                                               ; preds = %19
  %31 = load i32, ptr %3, align 4, !tbaa !34
  %32 = add nsw i32 %31, 1
  store i32 %32, ptr %3, align 4, !tbaa !34
  br label %10, !llvm.loop !40

33:                                               ; preds = %10
  %34 = load ptr, ptr %2, align 8, !tbaa !3
  %35 = getelementptr inbounds nuw %struct.X509_crl_st, ptr %34, i32 0, i32 0
  %36 = getelementptr inbounds nuw %struct.X509_crl_info_st, ptr %35, i32 0, i32 7
  %37 = getelementptr inbounds nuw %struct.ASN1_ENCODING_st, ptr %36, i32 0, i32 2
  store i32 1, ptr %37, align 8, !tbaa !30
  call void @llvm.lifetime.end.p0(i64 8, ptr %4) #4
  call void @llvm.lifetime.end.p0(i64 4, ptr %3) #4
  ret i32 1
}