; Function Attrs: nounwind uwtable
define noundef i32 @X509_CRL_sort(ptr noundef captures(none) %0) local_unnamed_addr #0 {
  %2 = getelementptr inbounds nuw i8, ptr %0, i64 48
  %3 = load ptr, ptr %2, align 8, !tbaa !28
  tail call void @OPENSSL_sk_sort(ptr noundef %3) #6
  %4 = load ptr, ptr %2, align 8, !tbaa !28
  %5 = tail call i32 @OPENSSL_sk_num(ptr noundef %4) #6
  %6 = icmp sgt i32 %5, 0
  br i1 %6, label %.lr.ph, label %._crit_edge

.lr.ph:                                           ; preds = %1, %.lr.ph
  %.08 = phi i32 [ %10, %.lr.ph ], [ 0, %1 ]
  %7 = load ptr, ptr %2, align 8, !tbaa !28
  %8 = tail call ptr @OPENSSL_sk_value(ptr noundef %7, i32 noundef %.08) #6
  %9 = getelementptr inbounds nuw i8, ptr %8, i64 52
  store i32 %.08, ptr %9, align 4, !tbaa !29
  %10 = add nuw nsw i32 %.08, 1
  %11 = load ptr, ptr %2, align 8, !tbaa !28
  %12 = tail call i32 @OPENSSL_sk_num(ptr noundef %11) #6
  %13 = icmp slt i32 %10, %12
  br i1 %13, label %.lr.ph, label %._crit_edge, !llvm.loop !32

._crit_edge:                                      ; preds = %.lr.ph, %1
  %14 = getelementptr inbounds nuw i8, ptr %0, i64 80
  store i32 1, ptr %14, align 8, !tbaa !27
  ret i32 1
}